target datalayout = "e-m:e-p270:32:32-p271:32:32-p272:64:64-i64:64-i128:128-f80:128-n8:16:32:64-S128"
target triple = "x86_64-pc-linux-gnu"

%struct.asn1_string_st = type { i32, i32, ptr, i64 }
%struct.X509_algor_st = type { ptr, ptr }

@.str.3 = private unnamed_addr constant [34 x i8] c"../openssl/crypto/dh/dh_backend.c\00", align 1
@__func__.ossl_dh_key_from_pkcs8 = private unnamed_addr constant [23 x i8] c"ossl_dh_key_from_pkcs8\00", align 1

; Function Attrs: nounwind uwtable
define ptr @ossl_dh_key_from_pkcs8(ptr noundef %0, ptr noundef %1, ptr noundef %2) #0 {
  %4 = alloca ptr, align 8
  %5 = alloca ptr, align 8
  %6 = alloca ptr, align 8
  %7 = alloca ptr, align 8
  %8 = alloca ptr, align 8
  %9 = alloca ptr, align 8
  %10 = alloca i32, align 4
  %11 = alloca i32, align 4
  %12 = alloca i32, align 4
  %13 = alloca ptr, align 8
  %14 = alloca ptr, align 8
  %15 = alloca ptr, align 8
  %16 = alloca ptr, align 8
  %17 = alloca ptr, align 8
  %18 = alloca ptr, align 8
  %19 = alloca i32, align 4
  store ptr %0, ptr %5, align 8, !tbaa !38
  store ptr %1, ptr %6, align 8, !tbaa !40
  store ptr %2, ptr %7, align 8, !tbaa !41
  call void @llvm.lifetime.start.p0(i64 8, ptr %8) #4
  call void @llvm.lifetime.start.p0(i64 8, ptr %9) #4
  call void @llvm.lifetime.start.p0(i64 4, ptr %10) #4
  call void @llvm.lifetime.start.p0(i64 4, ptr %11) #4
  call void @llvm.lifetime.start.p0(i64 4, ptr %12) #4
  call void @llvm.lifetime.start.p0(i64 8, ptr %13) #4
  call void @llvm.lifetime.start.p0(i64 8, ptr %14) #4
  call void @llvm.lifetime.start.p0(i64 8, ptr %15) #4
  call void @llvm.lifetime.start.p0(i64 8, ptr %16) #4
  store ptr null, ptr %16, align 8, !tbaa !16
  call void @llvm.lifetime.start.p0(i64 8, ptr %17) #4
  store ptr null, ptr %17, align 8, !tbaa !42
  call void @llvm.lifetime.start.p0(i64 8, ptr %18) #4
  store ptr null, ptr %18, align 8, !tbaa !3
  %20 = load ptr, ptr %5, align 8, !tbaa !38
  %21 = call i32 @PKCS8_pkey_get0(ptr noundef null, ptr noundef %8, ptr noundef %10, ptr noundef %15, ptr noundef %20)
  %22 = icmp ne i32 %21, 0
  br i1 %22, label %24, label %23

23:                                               ; preds = %3
  store ptr null, ptr %4, align 8
  store i32 1, ptr %19, align 4
  br label %88

24:                                               ; preds = %3
  %25 = load ptr, ptr %15, align 8, !tbaa !44
  call void @X509_ALGOR_get0(ptr noundef null, ptr noundef %12, ptr noundef %13, ptr noundef %25)
  %26 = load i32, ptr %12, align 4, !tbaa !14
  %27 = icmp ne i32 %26, 16
  br i1 %27, label %28, label %29

28:                                               ; preds = %24
  br label %82

29:                                               ; preds = %24
  %30 = load i32, ptr %10, align 4, !tbaa !14
  %31 = sext i32 %30 to i64
  %32 = call ptr @d2i_ASN1_INTEGER(ptr noundef null, ptr noundef %8, i64 noundef %31)
  store ptr %32, ptr %17, align 8, !tbaa !42
  %33 = icmp eq ptr %32, null
  br i1 %33, label %34, label %35

34:                                               ; preds = %29
  br label %82

35:                                               ; preds = %29
  %36 = load ptr, ptr %13, align 8, !tbaa !46
  store ptr %36, ptr %14, align 8, !tbaa !42
  %37 = load ptr, ptr %14, align 8, !tbaa !42
  %38 = getelementptr inbounds nuw %struct.asn1_string_st, ptr %37, i32 0, i32 2
  %39 = load ptr, ptr %38, align 8, !tbaa !47
  store ptr %39, ptr %9, align 8, !tbaa !41
  %40 = load ptr, ptr %14, align 8, !tbaa !42
  %41 = getelementptr inbounds nuw %struct.asn1_string_st, ptr %40, i32 0, i32 0
  %42 = load i32, ptr %41, align 8, !tbaa !49
  store i32 %42, ptr %11, align 4, !tbaa !14
  %43 = load ptr, ptr %15, align 8, !tbaa !44
  %44 = getelementptr inbounds nuw %struct.X509_algor_st, ptr %43, i32 0, i32 0
  %45 = load ptr, ptr %44, align 8, !tbaa !50
  %46 = call i32 @OBJ_obj2nid(ptr noundef %45)
  switch i32 %46, label %55 [
    i32 28, label %47
    i32 920, label %51
  ]

47:                                               ; preds = %35
  %48 = load i32, ptr %11, align 4, !tbaa !14
  %49 = sext i32 %48 to i64
  %50 = call ptr @d2i_DHparams(ptr noundef null, ptr noundef %9, i64 noundef %49)
  store ptr %50, ptr %18, align 8, !tbaa !3
  br label %56

51:                                               ; preds = %35
  %52 = load i32, ptr %11, align 4, !tbaa !14
  %53 = sext i32 %52 to i64
  %54 = call ptr @d2i_DHxparams(ptr noundef null, ptr noundef %9, i64 noundef %53)
  store ptr %54, ptr %18, align 8, !tbaa !3
  br label %56

55:                                               ; preds = %35
  br label %82

56:                                               ; preds = %51, %47
  %57 = load ptr, ptr %18, align 8, !tbaa !3
  %58 = icmp eq ptr %57, null
  br i1 %58, label %59, label %60

59:                                               ; preds = %56
  br label %82

60:                                               ; preds = %56
  %61 = call ptr @BN_secure_new()
  store ptr %61, ptr %16, align 8, !tbaa !16
  %62 = icmp eq ptr %61, null
  br i1 %62, label %68, label %63

63:                                               ; preds = %60
  %64 = load ptr, ptr %17, align 8, !tbaa !42
  %65 = load ptr, ptr %16, align 8, !tbaa !16
  %66 = call ptr @ASN1_INTEGER_to_BN(ptr noundef %64, ptr noundef %65)
  %67 = icmp ne ptr %66, null
  br i1 %67, label %70, label %68

68:                                               ; preds = %63, %60
  call void @ERR_new()
  call void @ERR_set_debug(ptr noundef @.str.3, i32 noundef 223, ptr noundef @__func__.ossl_dh_key_from_pkcs8)
  call void (i32, i32, ptr, ...) @ERR_set_error(i32 noundef 5, i32 noundef 106, ptr noundef null)
  %69 = load ptr, ptr %16, align 8, !tbaa !16
  call void @BN_clear_free(ptr noundef %69)
  br label %83

70:                                               ; preds = %63
  %71 = load ptr, ptr %18, align 8, !tbaa !3
  %72 = load ptr, ptr %16, align 8, !tbaa !16
  %73 = call i32 @DH_set0_key(ptr noundef %71, ptr noundef null, ptr noundef %72)
  %74 = icmp ne i32 %73, 0
  br i1 %74, label %76, label %75

75:                                               ; preds = %70
  br label %83

76:                                               ; preds = %70
  %77 = load ptr, ptr %18, align 8, !tbaa !3
  %78 = call i32 @DH_generate_key(ptr noundef %77)
  %79 = icmp ne i32 %78, 0
  br i1 %79, label %81, label %80

80:                                               ; preds = %76
  br label %83

81:                                               ; preds = %76
  br label %85

82:                                               ; preds = %59, %55, %34, %28
  call void @ERR_new()
  call void @ERR_set_debug(ptr noundef @.str.3, i32 noundef 236, ptr noundef @__func__.ossl_dh_key_from_pkcs8)
  call void (i32, i32, ptr, ...) @ERR_set_error(i32 noundef 5, i32 noundef 114, ptr noundef null)
  br label %83

83:                                               ; preds = %82, %80, %75, %68
  %84 = load ptr, ptr %18, align 8, !tbaa !3
  call void @DH_free(ptr noundef %84)
  store ptr null, ptr %18, align 8, !tbaa !3
  br label %85

85:                                               ; preds = %83, %81
  %86 = load ptr, ptr %17, align 8, !tbaa !42
  call void @ASN1_STRING_clear_free(ptr noundef %86)
  %87 = load ptr, ptr %18, align 8, !tbaa !3
  store ptr %87, ptr %4, align 8
  store i32 1, ptr %19, align 4
  br label %88

88:                                               ; preds = %85, %23
  call void @llvm.lifetime.end.p0(i64 8, ptr %18) #4
  call void @llvm.lifetime.end.p0(i64 8, ptr %17) #4
  call void @llvm.lifetime.end.p0(i64 8, ptr %16) #4
  call void @llvm.lifetime.end.p0(i64 8, ptr %15) #4
  call void @llvm.lifetime.end.p0(i64 8, ptr %14) #4
  call void @llvm.lifetime.end.p0(i64 8, ptr %13) #4
  call void @llvm.lifetime.end.p0(i64 4, ptr %12) #4
  call void @llvm.lifetime.end.p0(i64 4, ptr %11) #4
  call void @llvm.lifetime.end.p0(i64 4, ptr %10) #4
  call void @llvm.lifetime.end.p0(i64 8, ptr %9) #4
  call void @llvm.lifetime.end.p0(i64 8, ptr %8) #4
  %89 = load ptr, ptr %4, align 8
  ret ptr %89
}