; Function Attrs: nounwind uwtable
define ptr @ossl_dh_key_from_pkcs8(ptr noundef %0, ptr noundef readnone captures(none) %1, ptr noundef readnone captures(none) %2) local_unnamed_addr #0 {
  %4 = alloca ptr, align 8
  %5 = alloca ptr, align 8
  %6 = alloca i32, align 4
  %7 = alloca i32, align 4
  %8 = alloca ptr, align 8
  %9 = alloca ptr, align 8
  call void @llvm.lifetime.start.p0(i64 8, ptr nonnull %4) #3
  call void @llvm.lifetime.start.p0(i64 8, ptr nonnull %5) #3
  call void @llvm.lifetime.start.p0(i64 4, ptr nonnull %6) #3
  call void @llvm.lifetime.start.p0(i64 4, ptr nonnull %7) #3
  call void @llvm.lifetime.start.p0(i64 8, ptr nonnull %8) #3
  call void @llvm.lifetime.start.p0(i64 8, ptr nonnull %9) #3
  %10 = call i32 @PKCS8_pkey_get0(ptr noundef null, ptr noundef nonnull %4, ptr noundef nonnull %6, ptr noundef nonnull %9, ptr noundef %0) #3
  %.not = icmp eq i32 %10, 0
  br i1 %.not, label %48, label %11

11:                                               ; preds = %3
  %12 = load ptr, ptr %9, align 8, !tbaa !27
  call void @X509_ALGOR_get0(ptr noundef null, ptr noundef nonnull %7, ptr noundef nonnull %8, ptr noundef %12) #3
  %13 = load i32, ptr %7, align 4, !tbaa !29
  %.not22 = icmp eq i32 %13, 16
  br i1 %.not22, label %14, label %45

14:                                               ; preds = %11
  %15 = load i32, ptr %6, align 4, !tbaa !29
  %16 = sext i32 %15 to i64
  %17 = call ptr @d2i_ASN1_INTEGER(ptr noundef null, ptr noundef nonnull %4, i64 noundef %16) #3
  %18 = icmp eq ptr %17, null
  br i1 %18, label %45, label %19

19:                                               ; preds = %14
  %20 = load ptr, ptr %8, align 8, !tbaa !30
  %21 = getelementptr inbounds nuw i8, ptr %20, i64 8
  %22 = load ptr, ptr %21, align 8, !tbaa !31
  store ptr %22, ptr %5, align 8, !tbaa !33
  %23 = load i32, ptr %20, align 8, !tbaa !34
  %24 = load ptr, ptr %9, align 8, !tbaa !27
  %25 = load ptr, ptr %24, align 8, !tbaa !35
  %26 = call i32 @OBJ_obj2nid(ptr noundef %25) #3
  switch i32 %26, label %45 [
    i32 28, label %27
    i32 920, label %30
  ]

27:                                               ; preds = %19
  %28 = sext i32 %23 to i64
  %29 = call ptr @d2i_DHparams(ptr noundef null, ptr noundef nonnull %5, i64 noundef %28) #3
  br label %33

30:                                               ; preds = %19
  %31 = sext i32 %23 to i64
  %32 = call ptr @d2i_DHxparams(ptr noundef null, ptr noundef nonnull %5, i64 noundef %31) #3
  br label %33

33:                                               ; preds = %30, %27
  %.1 = phi ptr [ %32, %30 ], [ %29, %27 ]
  %34 = icmp eq ptr %.1, null
  br i1 %34, label %45, label %35

35:                                               ; preds = %33
  %36 = call ptr @BN_secure_new() #3
  %37 = icmp eq ptr %36, null
  br i1 %37, label %40, label %38

38:                                               ; preds = %35
  %39 = call ptr @ASN1_INTEGER_to_BN(ptr noundef nonnull %17, ptr noundef nonnull %36) #3
  %.not23 = icmp eq ptr %39, null
  br i1 %.not23, label %40, label %41

40:                                               ; preds = %38, %35
  call void @ERR_new() #3
  call void @ERR_set_debug(ptr noundef nonnull @.str.3, i32 noundef 223, ptr noundef nonnull @__func__.ossl_dh_key_from_pkcs8) #3
  call void (i32, i32, ptr, ...) @ERR_set_error(i32 noundef 5, i32 noundef 106, ptr noundef null) #3
  call void @BN_clear_free(ptr noundef %36) #3
  br label %46

41:                                               ; preds = %38
  %42 = call i32 @DH_set0_key(ptr noundef nonnull %.1, ptr noundef null, ptr noundef nonnull %36) #3
  %.not24 = icmp eq i32 %42, 0
  br i1 %.not24, label %46, label %43

43:                                               ; preds = %41
  %44 = call i32 @DH_generate_key(ptr noundef nonnull %.1) #3
  %.not25 = icmp eq i32 %44, 0
  br i1 %.not25, label %46, label %47

45:                                               ; preds = %33, %19, %14, %11
  %.015 = phi ptr [ null, %11 ], [ null, %14 ], [ %17, %19 ], [ %17, %33 ]
  call void @ERR_new() #3
  call void @ERR_set_debug(ptr noundef nonnull @.str.3, i32 noundef 236, ptr noundef nonnull @__func__.ossl_dh_key_from_pkcs8) #3
  call void (i32, i32, ptr, ...) @ERR_set_error(i32 noundef 5, i32 noundef 114, ptr noundef null) #3
  br label %46

46:                                               ; preds = %43, %41, %45, %40
  %.116 = phi ptr [ %.015, %45 ], [ %17, %40 ], [ %17, %43 ], [ %17, %41 ]
  %.2 = phi ptr [ null, %45 ], [ %.1, %40 ], [ %.1, %43 ], [ %.1, %41 ]
  call void @DH_free(ptr noundef %.2) #3
  br label %47

47:                                               ; preds = %43, %46
  %.217 = phi ptr [ %.116, %46 ], [ %17, %43 ]
  %.3 = phi ptr [ null, %46 ], [ %.1, %43 ]
  call void @ASN1_STRING_clear_free(ptr noundef %.217) #3
  br label %48

48:                                               ; preds = %3, %47
  %.018 = phi ptr [ %.3, %47 ], [ null, %3 ]
  call void @llvm.lifetime.end.p0(i64 8, ptr nonnull %9) #3
  call void @llvm.lifetime.end.p0(i64 8, ptr nonnull %8) #3
  call void @llvm.lifetime.end.p0(i64 4, ptr nonnull %7) #3
  call void @llvm.lifetime.end.p0(i64 4, ptr nonnull %6) #3
  call void @llvm.lifetime.end.p0(i64 8, ptr nonnull %5) #3
  call void @llvm.lifetime.end.p0(i64 8, ptr nonnull %4) #3
  ret ptr %.018
}